; Function Attrs: nofree nounwind uwtable
define noundef i32 @gvflush(ptr noundef readonly captures(none) %0) local_unnamed_addr #11 {
  %2 = getelementptr inbounds nuw i8, ptr %0, i64 72
  %3 = load ptr, ptr %2, align 8, !tbaa !34
  %.not = icmp eq ptr %3, null
  br i1 %.not, label %14, label %4

4:                                                ; preds = %1
  %5 = getelementptr inbounds nuw i8, ptr %0, i64 264
  %6 = load i8, ptr %5, align 8, !tbaa !76, !range !50, !noundef !51
  %7 = trunc nuw i8 %6 to i1
  br i1 %7, label %14, label %8

8:                                                ; preds = %4
  %9 = load ptr, ptr %0, align 8, !tbaa !30
  %10 = getelementptr inbounds nuw i8, ptr %9, i64 208
  %11 = load ptr, ptr %10, align 8, !tbaa !68
  %.not5 = icmp eq ptr %11, null
  br i1 %.not5, label %12, label %14

12:                                               ; preds = %8
  %13 = tail call i32 @fflush(ptr noundef nonnull %3)
  br label %14

14:                                               ; preds = %1, %4, %8, %12
  %.0 = phi i32 [ %13, %12 ], [ 0, %8 ], [ 0, %4 ], [ 0, %1 ]
  ret i32 %.0
}